; ModuleID = '21/1374.c'
source_filename = "21/1374.c"
target datalayout = "e-m:e-p270:32:32-p271:32:32-p272:64:64-i64:64-f80:128-n8:16:32:64-S128"
target triple = "x86_64-pc-linux-gnu"

@.str = private unnamed_addr constant [3 x i8] c"%d\00", align 1
@.str.1 = private unnamed_addr constant [6 x i8] c"%d,%d\00", align 1

; Function Attrs: noinline nounwind uwtable
define dso_local i32 @main(i32 %0, i8** %1) #0 {
  %3 = alloca i32, align 4
  %4 = alloca i32, align 4
  %5 = alloca i8**, align 8
  %6 = alloca i32, align 4
  %7 = alloca i32, align 4
  %8 = alloca [300 x i32], align 16
  %9 = alloca i32, align 4
  %10 = alloca float, align 4
  %11 = alloca i32, align 4
  %12 = alloca [300 x float], align 16
  %13 = alloca float, align 4
  %14 = alloca i32, align 4
  %15 = alloca i32, align 4
  %16 = alloca i32, align 4
  %17 = alloca i32, align 4
  store i32 0, i32* %3, align 4
  store i32 %0, i32* %4, align 4
  store i8** %1, i8*** %5, align 8
  store i32 0, i32* %7, align 4
  %18 = call i32 (i8*, ...) @__isoc99_scanf(i8* getelementptr inbounds ([3 x i8], [3 x i8]* @.str, i64 0, i64 0), i32* %6)
  store i32 0, i32* %9, align 4
  br label %19

19:                                               ; preds = %34, %2
  %20 = load i32, i32* %9, align 4
  %21 = load i32, i32* %6, align 4
  %22 = icmp slt i32 %20, %21
  br i1 %22, label %23, label %37

23:                                               ; preds = %19
  %24 = load i32, i32* %9, align 4
  %25 = sext i32 %24 to i64
  %26 = getelementptr inbounds [300 x i32], [300 x i32]* %8, i64 0, i64 %25
  %27 = call i32 (i8*, ...) @__isoc99_scanf(i8* getelementptr inbounds ([3 x i8], [3 x i8]* @.str, i64 0, i64 0), i32* %26)
  %28 = load i32, i32* %9, align 4
  %29 = sext i32 %28 to i64
  %30 = getelementptr inbounds [300 x i32], [300 x i32]* %8, i64 0, i64 %29
  %31 = load i32, i32* %30, align 4
  %32 = load i32, i32* %7, align 4
  %33 = add nsw i32 %32, %31
  store i32 %33, i32* %7, align 4
  br label %34

34:                                               ; preds = %23
  %35 = load i32, i32* %9, align 4
  %36 = add nsw i32 %35, 1
  store i32 %36, i32* %9, align 4
  br label %19

37:                                               ; preds = %19
  %38 = load i32, i32* %7, align 4
  %39 = sitofp i32 %38 to float
  %40 = load i32, i32* %6, align 4
  %41 = sitofp i32 %40 to float
  %42 = fdiv float %39, %41
  store float %42, float* %10, align 4
  store i32 0, i32* %11, align 4
  br label %43

43:                                               ; preds = %78, %37
  %44 = load i32, i32* %11, align 4
  %45 = load i32, i32* %6, align 4
  %46 = icmp slt i32 %44, %45
  br i1 %46, label %47, label %81

47:                                               ; preds = %43
  %48 = load i32, i32* %11, align 4
  %49 = sext i32 %48 to i64
  %50 = getelementptr inbounds [300 x i32], [300 x i32]* %8, i64 0, i64 %49
  %51 = load i32, i32* %50, align 4
  %52 = sitofp i32 %51 to float
  %53 = load float, float* %10, align 4
  %54 = fcmp ogt float %52, %53
  br i1 %54, label %55, label %66

55:                                               ; preds = %47
  %56 = load i32, i32* %11, align 4
  %57 = sext i32 %56 to i64
  %58 = getelementptr inbounds [300 x i32], [300 x i32]* %8, i64 0, i64 %57
  %59 = load i32, i32* %58, align 4
  %60 = sitofp i32 %59 to float
  %61 = load float, float* %10, align 4
  %62 = fsub float %60, %61
  %63 = load i32, i32* %11, align 4
  %64 = sext i32 %63 to i64
  %65 = getelementptr inbounds [300 x float], [300 x float]* %12, i64 0, i64 %64
  store float %62, float* %65, align 4
  br label %77

66:                                               ; preds = %47
  %67 = load float, float* %10, align 4
  %68 = load i32, i32* %11, align 4
  %69 = sext i32 %68 to i64
  %70 = getelementptr inbounds [300 x i32], [300 x i32]* %8, i64 0, i64 %69
  %71 = load i32, i32* %70, align 4
  %72 = sitofp i32 %71 to float
  %73 = fsub float %67, %72
  %74 = load i32, i32* %11, align 4
  %75 = sext i32 %74 to i64
  %76 = getelementptr inbounds [300 x float], [300 x float]* %12, i64 0, i64 %75
  store float %73, float* %76, align 4
  br label %77

77:                                               ; preds = %66, %55
  br label %78

78:                                               ; preds = %77
  %79 = load i32, i32* %11, align 4
  %80 = add nsw i32 %79, 1
  store i32 %80, i32* %11, align 4
  br label %43

81:                                               ; preds = %43
  %82 = getelementptr inbounds [300 x float], [300 x float]* %12, i64 0, i64 0
  %83 = load float, float* %82, align 16
  store float %83, float* %13, align 4
  store i32 0, i32* %15, align 4
  store i32 0, i32* %16, align 4
  store i32 1, i32* %14, align 4
  br label %84

84:                                               ; preds = %102, %81
  %85 = load i32, i32* %14, align 4
  %86 = load i32, i32* %6, align 4
  %87 = icmp slt i32 %85, %86
  br i1 %87, label %88, label %105

88:                                               ; preds = %84
  %89 = load i32, i32* %14, align 4
  %90 = sext i32 %89 to i64
  %91 = getelementptr inbounds [300 x float], [300 x float]* %12, i64 0, i64 %90
  %92 = load float, float* %91, align 4
  %93 = load float, float* %13, align 4
  %94 = fcmp ogt float %92, %93
  br i1 %94, label %95, label %101

95:                                               ; preds = %88
  %96 = load i32, i32* %14, align 4
  %97 = sext i32 %96 to i64
  %98 = getelementptr inbounds [300 x float], [300 x float]* %12, i64 0, i64 %97
  %99 = load float, float* %98, align 4
  store float %99, float* %13, align 4
  %100 = load i32, i32* %14, align 4
  store i32 %100, i32* %15, align 4
  br label %101

101:                                              ; preds = %95, %88
  br label %102

102:                                              ; preds = %101
  %103 = load i32, i32* %14, align 4
  %104 = add nsw i32 %103, 1
  store i32 %104, i32* %14, align 4
  br label %84

105:                                              ; preds = %84
  %106 = load i32, i32* %15, align 4
  %107 = add nsw i32 %106, 1
  store i32 %107, i32* %17, align 4
  br label %108

108:                                              ; preds = %122, %105
  %109 = load i32, i32* %17, align 4
  %110 = load i32, i32* %6, align 4
  %111 = icmp slt i32 %109, %110
  br i1 %111, label %112, label %125

112:                                              ; preds = %108
  %113 = load i32, i32* %17, align 4
  %114 = sext i32 %113 to i64
  %115 = getelementptr inbounds [300 x float], [300 x float]* %12, i64 0, i64 %114
  %116 = load float, float* %115, align 4
  %117 = load float, float* %13, align 4
  %118 = fcmp oeq float %116, %117
  br i1 %118, label %119, label %121

119:                                              ; preds = %112
  %120 = load i32, i32* %17, align 4
  store i32 %120, i32* %16, align 4
  br label %121

121:                                              ; preds = %119, %112
  br label %122

122:                                              ; preds = %121
  %123 = load i32, i32* %17, align 4
  %124 = add nsw i32 %123, 1
  store i32 %124, i32* %17, align 4
  br label %108

125:                                              ; preds = %108
  %126 = load i32, i32* %16, align 4
  %127 = icmp eq i32 %126, 0
  br i1 %127, label %128, label %134

128:                                              ; preds = %125
  %129 = load i32, i32* %15, align 4
  %130 = sext i32 %129 to i64
  %131 = getelementptr inbounds [300 x i32], [300 x i32]* %8, i64 0, i64 %130
  %132 = load i32, i32* %131, align 4
  %133 = call i32 (i8*, ...) @printf(i8* getelementptr inbounds ([3 x i8], [3 x i8]* @.str, i64 0, i64 0), i32 %132)
  br label %134

134:                                              ; preds = %128, %125
  %135 = load i32, i32* %16, align 4
  %136 = icmp ne i32 %135, 0
  br i1 %136, label %137, label %168

137:                                              ; preds = %134
  %138 = load i32, i32* %15, align 4
  %139 = sext i32 %138 to i64
  %140 = getelementptr inbounds [300 x i32], [300 x i32]* %8, i64 0, i64 %139
  %141 = load i32, i32* %140, align 4
  %142 = load i32, i32* %16, align 4
  %143 = sext i32 %142 to i64
  %144 = getelementptr inbounds [300 x i32], [300 x i32]* %8, i64 0, i64 %143
  %145 = load i32, i32* %144, align 4
  %146 = icmp sgt i32 %141, %145
  br i1 %146, label %147, label %157

147:                                              ; preds = %137
  %148 = load i32, i32* %16, align 4
  %149 = sext i32 %148 to i64
  %150 = getelementptr inbounds [300 x i32], [300 x i32]* %8, i64 0, i64 %149
  %151 = load i32, i32* %150, align 4
  %152 = load i32, i32* %15, align 4
  %153 = sext i32 %152 to i64
  %154 = getelementptr inbounds [300 x i32], [300 x i32]* %8, i64 0, i64 %153
  %155 = load i32, i32* %154, align 4
  %156 = call i32 (i8*, ...) @printf(i8* getelementptr inbounds ([6 x i8], [6 x i8]* @.str.1, i64 0, i64 0), i32 %151, i32 %155)
  br label %167

157:                                              ; preds = %137
  %158 = load i32, i32* %15, align 4
  %159 = sext i32 %158 to i64
  %160 = getelementptr inbounds [300 x i32], [300 x i32]* %8, i64 0, i64 %159
  %161 = load i32, i32* %160, align 4
  %162 = load i32, i32* %16, align 4
  %163 = sext i32 %162 to i64
  %164 = getelementptr inbounds [300 x i32], [300 x i32]* %8, i64 0, i64 %163
  %165 = load i32, i32* %164, align 4
  %166 = call i32 (i8*, ...) @printf(i8* getelementptr inbounds ([6 x i8], [6 x i8]* @.str.1, i64 0, i64 0), i32 %161, i32 %165)
  br label %167

167:                                              ; preds = %157, %147
  br label %168

168:                                              ; preds = %167, %134
  ret i32 0
}

declare dso_local i32 @__isoc99_scanf(i8*, ...) #1

declare dso_local i32 @printf(i8*, ...) #1


!llvm.module.flags = !{!0}
!llvm.ident = !{!1}

!0 = !{i32 1, !"wchar_size", i32 4}
!1 = !{!"clang version 10.0.0-4ubuntu1 "}
